ARM GAS  C:\Users\william\AppData\Local\Temp\ccncfDw2.s 			page 1


   1              		.cpu cortex-m4
   2              		.arch armv7e-m
   3              		.fpu fpv4-sp-d16
   4              		.eabi_attribute 27, 1
   5              		.eabi_attribute 28, 1
   6              		.eabi_attribute 20, 1
   7              		.eabi_attribute 21, 1
   8              		.eabi_attribute 23, 3
   9              		.eabi_attribute 24, 1
  10              		.eabi_attribute 25, 1
  11              		.eabi_attribute 26, 1
  12              		.eabi_attribute 30, 1
  13              		.eabi_attribute 34, 1
  14              		.eabi_attribute 18, 4
  15              		.file	"usart.c"
  16              		.text
  17              	.Ltext0:
  18              		.cfi_sections	.debug_frame
  19              		.file 1 "Core/Src/usart.c"
  20              		.section	.text.MX_USART1_UART_Init,"ax",%progbits
  21              		.align	1
  22              		.global	MX_USART1_UART_Init
  23              		.syntax unified
  24              		.thumb
  25              		.thumb_func
  27              	MX_USART1_UART_Init:
  28              	.LFB130:
   1:Core/Src/usart.c **** /* USER CODE BEGIN Header */
   2:Core/Src/usart.c **** /**
   3:Core/Src/usart.c ****   ******************************************************************************
   4:Core/Src/usart.c ****   * @file    usart.c
   5:Core/Src/usart.c ****   * @brief   This file provides code for the configuration
   6:Core/Src/usart.c ****   *          of the USART instances.
   7:Core/Src/usart.c ****   ******************************************************************************
   8:Core/Src/usart.c ****   * @attention
   9:Core/Src/usart.c ****   *
  10:Core/Src/usart.c ****   * Copyright (c) 2023 STMicroelectronics.
  11:Core/Src/usart.c ****   * All rights reserved.
  12:Core/Src/usart.c ****   *
  13:Core/Src/usart.c ****   * This software is licensed under terms that can be found in the LICENSE file
  14:Core/Src/usart.c ****   * in the root directory of this software component.
  15:Core/Src/usart.c ****   * If no LICENSE file comes with this software, it is provided AS-IS.
  16:Core/Src/usart.c ****   *
  17:Core/Src/usart.c ****   ******************************************************************************
  18:Core/Src/usart.c ****   */
  19:Core/Src/usart.c **** /* USER CODE END Header */
  20:Core/Src/usart.c **** /* Includes ------------------------------------------------------------------*/
  21:Core/Src/usart.c **** #include "usart.h"
  22:Core/Src/usart.c **** 
  23:Core/Src/usart.c **** /* USER CODE BEGIN 0 */
  24:Core/Src/usart.c **** 
  25:Core/Src/usart.c **** /* USER CODE END 0 */
  26:Core/Src/usart.c **** 
  27:Core/Src/usart.c **** UART_HandleTypeDef huart1;
  28:Core/Src/usart.c **** DMA_HandleTypeDef hdma_usart1_rx;
  29:Core/Src/usart.c **** DMA_HandleTypeDef hdma_usart1_tx;
  30:Core/Src/usart.c **** 
ARM GAS  C:\Users\william\AppData\Local\Temp\ccncfDw2.s 			page 2


  31:Core/Src/usart.c **** /* USART1 init function */
  32:Core/Src/usart.c **** 
  33:Core/Src/usart.c **** void MX_USART1_UART_Init(void)
  34:Core/Src/usart.c **** {
  29              		.loc 1 34 1 view -0
  30              		.cfi_startproc
  31              		@ args = 0, pretend = 0, frame = 0
  32              		@ frame_needed = 0, uses_anonymous_args = 0
  33 0000 08B5     		push	{r3, lr}
  34              		.cfi_def_cfa_offset 8
  35              		.cfi_offset 3, -8
  36              		.cfi_offset 14, -4
  35:Core/Src/usart.c **** 
  36:Core/Src/usart.c ****   /* USER CODE BEGIN USART1_Init 0 */
  37:Core/Src/usart.c **** 
  38:Core/Src/usart.c ****   /* USER CODE END USART1_Init 0 */
  39:Core/Src/usart.c **** 
  40:Core/Src/usart.c ****   /* USER CODE BEGIN USART1_Init 1 */
  41:Core/Src/usart.c **** 
  42:Core/Src/usart.c ****   /* USER CODE END USART1_Init 1 */
  43:Core/Src/usart.c ****   huart1.Instance = USART1;
  37              		.loc 1 43 3 view .LVU1
  38              		.loc 1 43 19 is_stmt 0 view .LVU2
  39 0002 0A48     		ldr	r0, .L5
  40 0004 0A4B     		ldr	r3, .L5+4
  41 0006 0360     		str	r3, [r0]
  44:Core/Src/usart.c ****   huart1.Init.BaudRate = 1152000;
  42              		.loc 1 44 3 is_stmt 1 view .LVU3
  43              		.loc 1 44 24 is_stmt 0 view .LVU4
  44 0008 0A4B     		ldr	r3, .L5+8
  45 000a 4360     		str	r3, [r0, #4]
  45:Core/Src/usart.c ****   huart1.Init.WordLength = UART_WORDLENGTH_8B;
  46              		.loc 1 45 3 is_stmt 1 view .LVU5
  47              		.loc 1 45 26 is_stmt 0 view .LVU6
  48 000c 0023     		movs	r3, #0
  49 000e 8360     		str	r3, [r0, #8]
  46:Core/Src/usart.c ****   huart1.Init.StopBits = UART_STOPBITS_1;
  50              		.loc 1 46 3 is_stmt 1 view .LVU7
  51              		.loc 1 46 24 is_stmt 0 view .LVU8
  52 0010 C360     		str	r3, [r0, #12]
  47:Core/Src/usart.c ****   huart1.Init.Parity = UART_PARITY_NONE;
  53              		.loc 1 47 3 is_stmt 1 view .LVU9
  54              		.loc 1 47 22 is_stmt 0 view .LVU10
  55 0012 0361     		str	r3, [r0, #16]
  48:Core/Src/usart.c ****   huart1.Init.Mode = UART_MODE_TX_RX;
  56              		.loc 1 48 3 is_stmt 1 view .LVU11
  57              		.loc 1 48 20 is_stmt 0 view .LVU12
  58 0014 0C22     		movs	r2, #12
  59 0016 4261     		str	r2, [r0, #20]
  49:Core/Src/usart.c ****   huart1.Init.HwFlowCtl = UART_HWCONTROL_NONE;
  60              		.loc 1 49 3 is_stmt 1 view .LVU13
  61              		.loc 1 49 25 is_stmt 0 view .LVU14
  62 0018 8361     		str	r3, [r0, #24]
  50:Core/Src/usart.c ****   huart1.Init.OverSampling = UART_OVERSAMPLING_16;
  63              		.loc 1 50 3 is_stmt 1 view .LVU15
  64              		.loc 1 50 28 is_stmt 0 view .LVU16
  65 001a C361     		str	r3, [r0, #28]
ARM GAS  C:\Users\william\AppData\Local\Temp\ccncfDw2.s 			page 3


  51:Core/Src/usart.c ****   if (HAL_UART_Init(&huart1) != HAL_OK)
  66              		.loc 1 51 3 is_stmt 1 view .LVU17
  67              		.loc 1 51 7 is_stmt 0 view .LVU18
  68 001c FFF7FEFF 		bl	HAL_UART_Init
  69              	.LVL0:
  70              		.loc 1 51 6 discriminator 1 view .LVU19
  71 0020 00B9     		cbnz	r0, .L4
  72              	.L1:
  52:Core/Src/usart.c ****   {
  53:Core/Src/usart.c ****     Error_Handler();
  54:Core/Src/usart.c ****   }
  55:Core/Src/usart.c ****   /* USER CODE BEGIN USART1_Init 2 */
  56:Core/Src/usart.c **** 
  57:Core/Src/usart.c ****   /* USER CODE END USART1_Init 2 */
  58:Core/Src/usart.c **** 
  59:Core/Src/usart.c **** }
  73              		.loc 1 59 1 view .LVU20
  74 0022 08BD     		pop	{r3, pc}
  75              	.L4:
  53:Core/Src/usart.c ****   }
  76              		.loc 1 53 5 is_stmt 1 view .LVU21
  77 0024 FFF7FEFF 		bl	Error_Handler
  78              	.LVL1:
  79              		.loc 1 59 1 is_stmt 0 view .LVU22
  80 0028 FBE7     		b	.L1
  81              	.L6:
  82 002a 00BF     		.align	2
  83              	.L5:
  84 002c 00000000 		.word	huart1
  85 0030 00100140 		.word	1073811456
  86 0034 00941100 		.word	1152000
  87              		.cfi_endproc
  88              	.LFE130:
  90              		.section	.text.HAL_UART_MspInit,"ax",%progbits
  91              		.align	1
  92              		.global	HAL_UART_MspInit
  93              		.syntax unified
  94              		.thumb
  95              		.thumb_func
  97              	HAL_UART_MspInit:
  98              	.LVL2:
  99              	.LFB131:
  60:Core/Src/usart.c **** 
  61:Core/Src/usart.c **** void HAL_UART_MspInit(UART_HandleTypeDef* uartHandle)
  62:Core/Src/usart.c **** {
 100              		.loc 1 62 1 is_stmt 1 view -0
 101              		.cfi_startproc
 102              		@ args = 0, pretend = 0, frame = 32
 103              		@ frame_needed = 0, uses_anonymous_args = 0
 104              		.loc 1 62 1 is_stmt 0 view .LVU24
 105 0000 2DE9F041 		push	{r4, r5, r6, r7, r8, lr}
 106              		.cfi_def_cfa_offset 24
 107              		.cfi_offset 4, -24
 108              		.cfi_offset 5, -20
 109              		.cfi_offset 6, -16
 110              		.cfi_offset 7, -12
 111              		.cfi_offset 8, -8
ARM GAS  C:\Users\william\AppData\Local\Temp\ccncfDw2.s 			page 4


 112              		.cfi_offset 14, -4
 113 0004 88B0     		sub	sp, sp, #32
 114              		.cfi_def_cfa_offset 56
  63:Core/Src/usart.c **** 
  64:Core/Src/usart.c ****   GPIO_InitTypeDef GPIO_InitStruct = {0};
 115              		.loc 1 64 3 is_stmt 1 view .LVU25
 116              		.loc 1 64 20 is_stmt 0 view .LVU26
 117 0006 0023     		movs	r3, #0
 118 0008 0393     		str	r3, [sp, #12]
 119 000a 0493     		str	r3, [sp, #16]
 120 000c 0593     		str	r3, [sp, #20]
 121 000e 0693     		str	r3, [sp, #24]
 122 0010 0793     		str	r3, [sp, #28]
  65:Core/Src/usart.c ****   if(uartHandle->Instance==USART1)
 123              		.loc 1 65 3 is_stmt 1 view .LVU27
 124              		.loc 1 65 16 is_stmt 0 view .LVU28
 125 0012 0268     		ldr	r2, [r0]
 126              		.loc 1 65 5 view .LVU29
 127 0014 03F18043 		add	r3, r3, #1073741824
 128 0018 03F58833 		add	r3, r3, #69632
 129 001c 9A42     		cmp	r2, r3
 130 001e 02D0     		beq	.L12
 131              	.LVL3:
 132              	.L7:
  66:Core/Src/usart.c ****   {
  67:Core/Src/usart.c ****   /* USER CODE BEGIN USART1_MspInit 0 */
  68:Core/Src/usart.c **** 
  69:Core/Src/usart.c ****   /* USER CODE END USART1_MspInit 0 */
  70:Core/Src/usart.c ****     /* USART1 clock enable */
  71:Core/Src/usart.c ****     __HAL_RCC_USART1_CLK_ENABLE();
  72:Core/Src/usart.c **** 
  73:Core/Src/usart.c ****     __HAL_RCC_GPIOB_CLK_ENABLE();
  74:Core/Src/usart.c ****     __HAL_RCC_GPIOA_CLK_ENABLE();
  75:Core/Src/usart.c ****     /**USART1 GPIO Configuration
  76:Core/Src/usart.c ****     PB7     ------> USART1_RX
  77:Core/Src/usart.c ****     PA9     ------> USART1_TX
  78:Core/Src/usart.c ****     */
  79:Core/Src/usart.c ****     GPIO_InitStruct.Pin = GPIO_PIN_7;
  80:Core/Src/usart.c ****     GPIO_InitStruct.Mode = GPIO_MODE_AF_PP;
  81:Core/Src/usart.c ****     GPIO_InitStruct.Pull = GPIO_NOPULL;
  82:Core/Src/usart.c ****     GPIO_InitStruct.Speed = GPIO_SPEED_FREQ_VERY_HIGH;
  83:Core/Src/usart.c ****     GPIO_InitStruct.Alternate = GPIO_AF7_USART1;
  84:Core/Src/usart.c ****     HAL_GPIO_Init(GPIOB, &GPIO_InitStruct);
  85:Core/Src/usart.c **** 
  86:Core/Src/usart.c ****     GPIO_InitStruct.Pin = GPIO_PIN_9;
  87:Core/Src/usart.c ****     GPIO_InitStruct.Mode = GPIO_MODE_AF_PP;
  88:Core/Src/usart.c ****     GPIO_InitStruct.Pull = GPIO_NOPULL;
  89:Core/Src/usart.c ****     GPIO_InitStruct.Speed = GPIO_SPEED_FREQ_VERY_HIGH;
  90:Core/Src/usart.c ****     GPIO_InitStruct.Alternate = GPIO_AF7_USART1;
  91:Core/Src/usart.c ****     HAL_GPIO_Init(GPIOA, &GPIO_InitStruct);
  92:Core/Src/usart.c **** 
  93:Core/Src/usart.c ****     /* USART1 DMA Init */
  94:Core/Src/usart.c ****     /* USART1_RX Init */
  95:Core/Src/usart.c ****     hdma_usart1_rx.Instance = DMA2_Stream2;
  96:Core/Src/usart.c ****     hdma_usart1_rx.Init.Channel = DMA_CHANNEL_4;
  97:Core/Src/usart.c ****     hdma_usart1_rx.Init.Direction = DMA_PERIPH_TO_MEMORY;
  98:Core/Src/usart.c ****     hdma_usart1_rx.Init.PeriphInc = DMA_PINC_DISABLE;
ARM GAS  C:\Users\william\AppData\Local\Temp\ccncfDw2.s 			page 5


  99:Core/Src/usart.c ****     hdma_usart1_rx.Init.MemInc = DMA_MINC_ENABLE;
 100:Core/Src/usart.c ****     hdma_usart1_rx.Init.PeriphDataAlignment = DMA_PDATAALIGN_BYTE;
 101:Core/Src/usart.c ****     hdma_usart1_rx.Init.MemDataAlignment = DMA_MDATAALIGN_BYTE;
 102:Core/Src/usart.c ****     hdma_usart1_rx.Init.Mode = DMA_NORMAL;
 103:Core/Src/usart.c ****     hdma_usart1_rx.Init.Priority = DMA_PRIORITY_LOW;
 104:Core/Src/usart.c ****     hdma_usart1_rx.Init.FIFOMode = DMA_FIFOMODE_DISABLE;
 105:Core/Src/usart.c ****     if (HAL_DMA_Init(&hdma_usart1_rx) != HAL_OK)
 106:Core/Src/usart.c ****     {
 107:Core/Src/usart.c ****       Error_Handler();
 108:Core/Src/usart.c ****     }
 109:Core/Src/usart.c **** 
 110:Core/Src/usart.c ****     __HAL_LINKDMA(uartHandle,hdmarx,hdma_usart1_rx);
 111:Core/Src/usart.c **** 
 112:Core/Src/usart.c ****     /* USART1_TX Init */
 113:Core/Src/usart.c ****     hdma_usart1_tx.Instance = DMA2_Stream7;
 114:Core/Src/usart.c ****     hdma_usart1_tx.Init.Channel = DMA_CHANNEL_4;
 115:Core/Src/usart.c ****     hdma_usart1_tx.Init.Direction = DMA_MEMORY_TO_PERIPH;
 116:Core/Src/usart.c ****     hdma_usart1_tx.Init.PeriphInc = DMA_PINC_DISABLE;
 117:Core/Src/usart.c ****     hdma_usart1_tx.Init.MemInc = DMA_MINC_ENABLE;
 118:Core/Src/usart.c ****     hdma_usart1_tx.Init.PeriphDataAlignment = DMA_PDATAALIGN_BYTE;
 119:Core/Src/usart.c ****     hdma_usart1_tx.Init.MemDataAlignment = DMA_MDATAALIGN_BYTE;
 120:Core/Src/usart.c ****     hdma_usart1_tx.Init.Mode = DMA_NORMAL;
 121:Core/Src/usart.c ****     hdma_usart1_tx.Init.Priority = DMA_PRIORITY_LOW;
 122:Core/Src/usart.c ****     hdma_usart1_tx.Init.FIFOMode = DMA_FIFOMODE_DISABLE;
 123:Core/Src/usart.c ****     if (HAL_DMA_Init(&hdma_usart1_tx) != HAL_OK)
 124:Core/Src/usart.c ****     {
 125:Core/Src/usart.c ****       Error_Handler();
 126:Core/Src/usart.c ****     }
 127:Core/Src/usart.c **** 
 128:Core/Src/usart.c ****     __HAL_LINKDMA(uartHandle,hdmatx,hdma_usart1_tx);
 129:Core/Src/usart.c **** 
 130:Core/Src/usart.c ****     /* USART1 interrupt Init */
 131:Core/Src/usart.c ****     HAL_NVIC_SetPriority(USART1_IRQn, 0, 0);
 132:Core/Src/usart.c ****     HAL_NVIC_EnableIRQ(USART1_IRQn);
 133:Core/Src/usart.c ****   /* USER CODE BEGIN USART1_MspInit 1 */
 134:Core/Src/usart.c **** 
 135:Core/Src/usart.c ****   /* USER CODE END USART1_MspInit 1 */
 136:Core/Src/usart.c ****   }
 137:Core/Src/usart.c **** }
 133              		.loc 1 137 1 view .LVU30
 134 0020 08B0     		add	sp, sp, #32
 135              		.cfi_remember_state
 136              		.cfi_def_cfa_offset 24
 137              		@ sp needed
 138 0022 BDE8F081 		pop	{r4, r5, r6, r7, r8, pc}
 139              	.LVL4:
 140              	.L12:
 141              		.cfi_restore_state
 142              		.loc 1 137 1 view .LVU31
 143 0026 0446     		mov	r4, r0
  71:Core/Src/usart.c **** 
 144              		.loc 1 71 5 is_stmt 1 view .LVU32
 145              	.LBB2:
  71:Core/Src/usart.c **** 
 146              		.loc 1 71 5 view .LVU33
 147 0028 0025     		movs	r5, #0
 148 002a 0095     		str	r5, [sp]
ARM GAS  C:\Users\william\AppData\Local\Temp\ccncfDw2.s 			page 6


  71:Core/Src/usart.c **** 
 149              		.loc 1 71 5 view .LVU34
 150 002c 03F59433 		add	r3, r3, #75776
 151 0030 5A6C     		ldr	r2, [r3, #68]
 152 0032 42F01002 		orr	r2, r2, #16
 153 0036 5A64     		str	r2, [r3, #68]
  71:Core/Src/usart.c **** 
 154              		.loc 1 71 5 view .LVU35
 155 0038 5A6C     		ldr	r2, [r3, #68]
 156 003a 02F01002 		and	r2, r2, #16
 157 003e 0092     		str	r2, [sp]
  71:Core/Src/usart.c **** 
 158              		.loc 1 71 5 view .LVU36
 159 0040 009A     		ldr	r2, [sp]
 160              	.LBE2:
  71:Core/Src/usart.c **** 
 161              		.loc 1 71 5 view .LVU37
  73:Core/Src/usart.c ****     __HAL_RCC_GPIOA_CLK_ENABLE();
 162              		.loc 1 73 5 view .LVU38
 163              	.LBB3:
  73:Core/Src/usart.c ****     __HAL_RCC_GPIOA_CLK_ENABLE();
 164              		.loc 1 73 5 view .LVU39
 165 0042 0195     		str	r5, [sp, #4]
  73:Core/Src/usart.c ****     __HAL_RCC_GPIOA_CLK_ENABLE();
 166              		.loc 1 73 5 view .LVU40
 167 0044 1A6B     		ldr	r2, [r3, #48]
 168 0046 42F00202 		orr	r2, r2, #2
 169 004a 1A63     		str	r2, [r3, #48]
  73:Core/Src/usart.c ****     __HAL_RCC_GPIOA_CLK_ENABLE();
 170              		.loc 1 73 5 view .LVU41
 171 004c 1A6B     		ldr	r2, [r3, #48]
 172 004e 02F00202 		and	r2, r2, #2
 173 0052 0192     		str	r2, [sp, #4]
  73:Core/Src/usart.c ****     __HAL_RCC_GPIOA_CLK_ENABLE();
 174              		.loc 1 73 5 view .LVU42
 175 0054 019A     		ldr	r2, [sp, #4]
 176              	.LBE3:
  73:Core/Src/usart.c ****     __HAL_RCC_GPIOA_CLK_ENABLE();
 177              		.loc 1 73 5 view .LVU43
  74:Core/Src/usart.c ****     /**USART1 GPIO Configuration
 178              		.loc 1 74 5 view .LVU44
 179              	.LBB4:
  74:Core/Src/usart.c ****     /**USART1 GPIO Configuration
 180              		.loc 1 74 5 view .LVU45
 181 0056 0295     		str	r5, [sp, #8]
  74:Core/Src/usart.c ****     /**USART1 GPIO Configuration
 182              		.loc 1 74 5 view .LVU46
 183 0058 1A6B     		ldr	r2, [r3, #48]
 184 005a 42F00102 		orr	r2, r2, #1
 185 005e 1A63     		str	r2, [r3, #48]
  74:Core/Src/usart.c ****     /**USART1 GPIO Configuration
 186              		.loc 1 74 5 view .LVU47
 187 0060 1B6B     		ldr	r3, [r3, #48]
 188 0062 03F00103 		and	r3, r3, #1
 189 0066 0293     		str	r3, [sp, #8]
  74:Core/Src/usart.c ****     /**USART1 GPIO Configuration
 190              		.loc 1 74 5 view .LVU48
ARM GAS  C:\Users\william\AppData\Local\Temp\ccncfDw2.s 			page 7


 191 0068 029B     		ldr	r3, [sp, #8]
 192              	.LBE4:
  74:Core/Src/usart.c ****     /**USART1 GPIO Configuration
 193              		.loc 1 74 5 view .LVU49
  79:Core/Src/usart.c ****     GPIO_InitStruct.Mode = GPIO_MODE_AF_PP;
 194              		.loc 1 79 5 view .LVU50
  79:Core/Src/usart.c ****     GPIO_InitStruct.Mode = GPIO_MODE_AF_PP;
 195              		.loc 1 79 25 is_stmt 0 view .LVU51
 196 006a 8023     		movs	r3, #128
 197 006c 0393     		str	r3, [sp, #12]
  80:Core/Src/usart.c ****     GPIO_InitStruct.Pull = GPIO_NOPULL;
 198              		.loc 1 80 5 is_stmt 1 view .LVU52
  80:Core/Src/usart.c ****     GPIO_InitStruct.Pull = GPIO_NOPULL;
 199              		.loc 1 80 26 is_stmt 0 view .LVU53
 200 006e 4FF00208 		mov	r8, #2
 201 0072 CDF81080 		str	r8, [sp, #16]
  81:Core/Src/usart.c ****     GPIO_InitStruct.Speed = GPIO_SPEED_FREQ_VERY_HIGH;
 202              		.loc 1 81 5 is_stmt 1 view .LVU54
  82:Core/Src/usart.c ****     GPIO_InitStruct.Alternate = GPIO_AF7_USART1;
 203              		.loc 1 82 5 view .LVU55
  82:Core/Src/usart.c ****     GPIO_InitStruct.Alternate = GPIO_AF7_USART1;
 204              		.loc 1 82 27 is_stmt 0 view .LVU56
 205 0076 0327     		movs	r7, #3
 206 0078 0697     		str	r7, [sp, #24]
  83:Core/Src/usart.c ****     HAL_GPIO_Init(GPIOB, &GPIO_InitStruct);
 207              		.loc 1 83 5 is_stmt 1 view .LVU57
  83:Core/Src/usart.c ****     HAL_GPIO_Init(GPIOB, &GPIO_InitStruct);
 208              		.loc 1 83 31 is_stmt 0 view .LVU58
 209 007a 0726     		movs	r6, #7
 210 007c 0796     		str	r6, [sp, #28]
  84:Core/Src/usart.c **** 
 211              		.loc 1 84 5 is_stmt 1 view .LVU59
 212 007e 03A9     		add	r1, sp, #12
 213 0080 2548     		ldr	r0, .L15
 214              	.LVL5:
  84:Core/Src/usart.c **** 
 215              		.loc 1 84 5 is_stmt 0 view .LVU60
 216 0082 FFF7FEFF 		bl	HAL_GPIO_Init
 217              	.LVL6:
  86:Core/Src/usart.c ****     GPIO_InitStruct.Mode = GPIO_MODE_AF_PP;
 218              		.loc 1 86 5 is_stmt 1 view .LVU61
  86:Core/Src/usart.c ****     GPIO_InitStruct.Mode = GPIO_MODE_AF_PP;
 219              		.loc 1 86 25 is_stmt 0 view .LVU62
 220 0086 4FF40073 		mov	r3, #512
 221 008a 0393     		str	r3, [sp, #12]
  87:Core/Src/usart.c ****     GPIO_InitStruct.Pull = GPIO_NOPULL;
 222              		.loc 1 87 5 is_stmt 1 view .LVU63
  87:Core/Src/usart.c ****     GPIO_InitStruct.Pull = GPIO_NOPULL;
 223              		.loc 1 87 26 is_stmt 0 view .LVU64
 224 008c CDF81080 		str	r8, [sp, #16]
  88:Core/Src/usart.c ****     GPIO_InitStruct.Speed = GPIO_SPEED_FREQ_VERY_HIGH;
 225              		.loc 1 88 5 is_stmt 1 view .LVU65
  88:Core/Src/usart.c ****     GPIO_InitStruct.Speed = GPIO_SPEED_FREQ_VERY_HIGH;
 226              		.loc 1 88 26 is_stmt 0 view .LVU66
 227 0090 0595     		str	r5, [sp, #20]
  89:Core/Src/usart.c ****     GPIO_InitStruct.Alternate = GPIO_AF7_USART1;
 228              		.loc 1 89 5 is_stmt 1 view .LVU67
ARM GAS  C:\Users\william\AppData\Local\Temp\ccncfDw2.s 			page 8


  89:Core/Src/usart.c ****     GPIO_InitStruct.Alternate = GPIO_AF7_USART1;
 229              		.loc 1 89 27 is_stmt 0 view .LVU68
 230 0092 0697     		str	r7, [sp, #24]
  90:Core/Src/usart.c ****     HAL_GPIO_Init(GPIOA, &GPIO_InitStruct);
 231              		.loc 1 90 5 is_stmt 1 view .LVU69
  90:Core/Src/usart.c ****     HAL_GPIO_Init(GPIOA, &GPIO_InitStruct);
 232              		.loc 1 90 31 is_stmt 0 view .LVU70
 233 0094 0796     		str	r6, [sp, #28]
  91:Core/Src/usart.c **** 
 234              		.loc 1 91 5 is_stmt 1 view .LVU71
 235 0096 03A9     		add	r1, sp, #12
 236 0098 2048     		ldr	r0, .L15+4
 237 009a FFF7FEFF 		bl	HAL_GPIO_Init
 238              	.LVL7:
  95:Core/Src/usart.c ****     hdma_usart1_rx.Init.Channel = DMA_CHANNEL_4;
 239              		.loc 1 95 5 view .LVU72
  95:Core/Src/usart.c ****     hdma_usart1_rx.Init.Channel = DMA_CHANNEL_4;
 240              		.loc 1 95 29 is_stmt 0 view .LVU73
 241 009e 2048     		ldr	r0, .L15+8
 242 00a0 204B     		ldr	r3, .L15+12
 243 00a2 0360     		str	r3, [r0]
  96:Core/Src/usart.c ****     hdma_usart1_rx.Init.Direction = DMA_PERIPH_TO_MEMORY;
 244              		.loc 1 96 5 is_stmt 1 view .LVU74
  96:Core/Src/usart.c ****     hdma_usart1_rx.Init.Direction = DMA_PERIPH_TO_MEMORY;
 245              		.loc 1 96 33 is_stmt 0 view .LVU75
 246 00a4 4FF00063 		mov	r3, #134217728
 247 00a8 4360     		str	r3, [r0, #4]
  97:Core/Src/usart.c ****     hdma_usart1_rx.Init.PeriphInc = DMA_PINC_DISABLE;
 248              		.loc 1 97 5 is_stmt 1 view .LVU76
  97:Core/Src/usart.c ****     hdma_usart1_rx.Init.PeriphInc = DMA_PINC_DISABLE;
 249              		.loc 1 97 35 is_stmt 0 view .LVU77
 250 00aa 8560     		str	r5, [r0, #8]
  98:Core/Src/usart.c ****     hdma_usart1_rx.Init.MemInc = DMA_MINC_ENABLE;
 251              		.loc 1 98 5 is_stmt 1 view .LVU78
  98:Core/Src/usart.c ****     hdma_usart1_rx.Init.MemInc = DMA_MINC_ENABLE;
 252              		.loc 1 98 35 is_stmt 0 view .LVU79
 253 00ac C560     		str	r5, [r0, #12]
  99:Core/Src/usart.c ****     hdma_usart1_rx.Init.PeriphDataAlignment = DMA_PDATAALIGN_BYTE;
 254              		.loc 1 99 5 is_stmt 1 view .LVU80
  99:Core/Src/usart.c ****     hdma_usart1_rx.Init.PeriphDataAlignment = DMA_PDATAALIGN_BYTE;
 255              		.loc 1 99 32 is_stmt 0 view .LVU81
 256 00ae 4FF48063 		mov	r3, #1024
 257 00b2 0361     		str	r3, [r0, #16]
 100:Core/Src/usart.c ****     hdma_usart1_rx.Init.MemDataAlignment = DMA_MDATAALIGN_BYTE;
 258              		.loc 1 100 5 is_stmt 1 view .LVU82
 100:Core/Src/usart.c ****     hdma_usart1_rx.Init.MemDataAlignment = DMA_MDATAALIGN_BYTE;
 259              		.loc 1 100 45 is_stmt 0 view .LVU83
 260 00b4 4561     		str	r5, [r0, #20]
 101:Core/Src/usart.c ****     hdma_usart1_rx.Init.Mode = DMA_NORMAL;
 261              		.loc 1 101 5 is_stmt 1 view .LVU84
 101:Core/Src/usart.c ****     hdma_usart1_rx.Init.Mode = DMA_NORMAL;
 262              		.loc 1 101 42 is_stmt 0 view .LVU85
 263 00b6 8561     		str	r5, [r0, #24]
 102:Core/Src/usart.c ****     hdma_usart1_rx.Init.Priority = DMA_PRIORITY_LOW;
 264              		.loc 1 102 5 is_stmt 1 view .LVU86
 102:Core/Src/usart.c ****     hdma_usart1_rx.Init.Priority = DMA_PRIORITY_LOW;
 265              		.loc 1 102 30 is_stmt 0 view .LVU87
ARM GAS  C:\Users\william\AppData\Local\Temp\ccncfDw2.s 			page 9


 266 00b8 C561     		str	r5, [r0, #28]
 103:Core/Src/usart.c ****     hdma_usart1_rx.Init.FIFOMode = DMA_FIFOMODE_DISABLE;
 267              		.loc 1 103 5 is_stmt 1 view .LVU88
 103:Core/Src/usart.c ****     hdma_usart1_rx.Init.FIFOMode = DMA_FIFOMODE_DISABLE;
 268              		.loc 1 103 34 is_stmt 0 view .LVU89
 269 00ba 0562     		str	r5, [r0, #32]
 104:Core/Src/usart.c ****     if (HAL_DMA_Init(&hdma_usart1_rx) != HAL_OK)
 270              		.loc 1 104 5 is_stmt 1 view .LVU90
 104:Core/Src/usart.c ****     if (HAL_DMA_Init(&hdma_usart1_rx) != HAL_OK)
 271              		.loc 1 104 34 is_stmt 0 view .LVU91
 272 00bc 4562     		str	r5, [r0, #36]
 105:Core/Src/usart.c ****     {
 273              		.loc 1 105 5 is_stmt 1 view .LVU92
 105:Core/Src/usart.c ****     {
 274              		.loc 1 105 9 is_stmt 0 view .LVU93
 275 00be FFF7FEFF 		bl	HAL_DMA_Init
 276              	.LVL8:
 105:Core/Src/usart.c ****     {
 277              		.loc 1 105 8 discriminator 1 view .LVU94
 278 00c2 18BB     		cbnz	r0, .L13
 279              	.L9:
 110:Core/Src/usart.c **** 
 280              		.loc 1 110 5 is_stmt 1 view .LVU95
 110:Core/Src/usart.c **** 
 281              		.loc 1 110 5 view .LVU96
 282 00c4 164B     		ldr	r3, .L15+8
 283 00c6 A363     		str	r3, [r4, #56]
 110:Core/Src/usart.c **** 
 284              		.loc 1 110 5 view .LVU97
 285 00c8 9C63     		str	r4, [r3, #56]
 110:Core/Src/usart.c **** 
 286              		.loc 1 110 5 view .LVU98
 113:Core/Src/usart.c ****     hdma_usart1_tx.Init.Channel = DMA_CHANNEL_4;
 287              		.loc 1 113 5 view .LVU99
 113:Core/Src/usart.c ****     hdma_usart1_tx.Init.Channel = DMA_CHANNEL_4;
 288              		.loc 1 113 29 is_stmt 0 view .LVU100
 289 00ca 1748     		ldr	r0, .L15+16
 290 00cc 174B     		ldr	r3, .L15+20
 291 00ce 0360     		str	r3, [r0]
 114:Core/Src/usart.c ****     hdma_usart1_tx.Init.Direction = DMA_MEMORY_TO_PERIPH;
 292              		.loc 1 114 5 is_stmt 1 view .LVU101
 114:Core/Src/usart.c ****     hdma_usart1_tx.Init.Direction = DMA_MEMORY_TO_PERIPH;
 293              		.loc 1 114 33 is_stmt 0 view .LVU102
 294 00d0 4FF00063 		mov	r3, #134217728
 295 00d4 4360     		str	r3, [r0, #4]
 115:Core/Src/usart.c ****     hdma_usart1_tx.Init.PeriphInc = DMA_PINC_DISABLE;
 296              		.loc 1 115 5 is_stmt 1 view .LVU103
 115:Core/Src/usart.c ****     hdma_usart1_tx.Init.PeriphInc = DMA_PINC_DISABLE;
 297              		.loc 1 115 35 is_stmt 0 view .LVU104
 298 00d6 4023     		movs	r3, #64
 299 00d8 8360     		str	r3, [r0, #8]
 116:Core/Src/usart.c ****     hdma_usart1_tx.Init.MemInc = DMA_MINC_ENABLE;
 300              		.loc 1 116 5 is_stmt 1 view .LVU105
 116:Core/Src/usart.c ****     hdma_usart1_tx.Init.MemInc = DMA_MINC_ENABLE;
 301              		.loc 1 116 35 is_stmt 0 view .LVU106
 302 00da 0023     		movs	r3, #0
 303 00dc C360     		str	r3, [r0, #12]
ARM GAS  C:\Users\william\AppData\Local\Temp\ccncfDw2.s 			page 10


 117:Core/Src/usart.c ****     hdma_usart1_tx.Init.PeriphDataAlignment = DMA_PDATAALIGN_BYTE;
 304              		.loc 1 117 5 is_stmt 1 view .LVU107
 117:Core/Src/usart.c ****     hdma_usart1_tx.Init.PeriphDataAlignment = DMA_PDATAALIGN_BYTE;
 305              		.loc 1 117 32 is_stmt 0 view .LVU108
 306 00de 4FF48062 		mov	r2, #1024
 307 00e2 0261     		str	r2, [r0, #16]
 118:Core/Src/usart.c ****     hdma_usart1_tx.Init.MemDataAlignment = DMA_MDATAALIGN_BYTE;
 308              		.loc 1 118 5 is_stmt 1 view .LVU109
 118:Core/Src/usart.c ****     hdma_usart1_tx.Init.MemDataAlignment = DMA_MDATAALIGN_BYTE;
 309              		.loc 1 118 45 is_stmt 0 view .LVU110
 310 00e4 4361     		str	r3, [r0, #20]
 119:Core/Src/usart.c ****     hdma_usart1_tx.Init.Mode = DMA_NORMAL;
 311              		.loc 1 119 5 is_stmt 1 view .LVU111
 119:Core/Src/usart.c ****     hdma_usart1_tx.Init.Mode = DMA_NORMAL;
 312              		.loc 1 119 42 is_stmt 0 view .LVU112
 313 00e6 8361     		str	r3, [r0, #24]
 120:Core/Src/usart.c ****     hdma_usart1_tx.Init.Priority = DMA_PRIORITY_LOW;
 314              		.loc 1 120 5 is_stmt 1 view .LVU113
 120:Core/Src/usart.c ****     hdma_usart1_tx.Init.Priority = DMA_PRIORITY_LOW;
 315              		.loc 1 120 30 is_stmt 0 view .LVU114
 316 00e8 C361     		str	r3, [r0, #28]
 121:Core/Src/usart.c ****     hdma_usart1_tx.Init.FIFOMode = DMA_FIFOMODE_DISABLE;
 317              		.loc 1 121 5 is_stmt 1 view .LVU115
 121:Core/Src/usart.c ****     hdma_usart1_tx.Init.FIFOMode = DMA_FIFOMODE_DISABLE;
 318              		.loc 1 121 34 is_stmt 0 view .LVU116
 319 00ea 0362     		str	r3, [r0, #32]
 122:Core/Src/usart.c ****     if (HAL_DMA_Init(&hdma_usart1_tx) != HAL_OK)
 320              		.loc 1 122 5 is_stmt 1 view .LVU117
 122:Core/Src/usart.c ****     if (HAL_DMA_Init(&hdma_usart1_tx) != HAL_OK)
 321              		.loc 1 122 34 is_stmt 0 view .LVU118
 322 00ec 4362     		str	r3, [r0, #36]
 123:Core/Src/usart.c ****     {
 323              		.loc 1 123 5 is_stmt 1 view .LVU119
 123:Core/Src/usart.c ****     {
 324              		.loc 1 123 9 is_stmt 0 view .LVU120
 325 00ee FFF7FEFF 		bl	HAL_DMA_Init
 326              	.LVL9:
 123:Core/Src/usart.c ****     {
 327              		.loc 1 123 8 discriminator 1 view .LVU121
 328 00f2 70B9     		cbnz	r0, .L14
 329              	.L10:
 128:Core/Src/usart.c **** 
 330              		.loc 1 128 5 is_stmt 1 view .LVU122
 128:Core/Src/usart.c **** 
 331              		.loc 1 128 5 view .LVU123
 332 00f4 0C4B     		ldr	r3, .L15+16
 333 00f6 6363     		str	r3, [r4, #52]
 128:Core/Src/usart.c **** 
 334              		.loc 1 128 5 view .LVU124
 335 00f8 9C63     		str	r4, [r3, #56]
 128:Core/Src/usart.c **** 
 336              		.loc 1 128 5 view .LVU125
 131:Core/Src/usart.c ****     HAL_NVIC_EnableIRQ(USART1_IRQn);
 337              		.loc 1 131 5 view .LVU126
 338 00fa 0022     		movs	r2, #0
 339 00fc 1146     		mov	r1, r2
 340 00fe 2520     		movs	r0, #37
ARM GAS  C:\Users\william\AppData\Local\Temp\ccncfDw2.s 			page 11


 341 0100 FFF7FEFF 		bl	HAL_NVIC_SetPriority
 342              	.LVL10:
 132:Core/Src/usart.c ****   /* USER CODE BEGIN USART1_MspInit 1 */
 343              		.loc 1 132 5 view .LVU127
 344 0104 2520     		movs	r0, #37
 345 0106 FFF7FEFF 		bl	HAL_NVIC_EnableIRQ
 346              	.LVL11:
 347              		.loc 1 137 1 is_stmt 0 view .LVU128
 348 010a 89E7     		b	.L7
 349              	.L13:
 107:Core/Src/usart.c ****     }
 350              		.loc 1 107 7 is_stmt 1 view .LVU129
 351 010c FFF7FEFF 		bl	Error_Handler
 352              	.LVL12:
 353 0110 D8E7     		b	.L9
 354              	.L14:
 125:Core/Src/usart.c ****     }
 355              		.loc 1 125 7 view .LVU130
 356 0112 FFF7FEFF 		bl	Error_Handler
 357              	.LVL13:
 358 0116 EDE7     		b	.L10
 359              	.L16:
 360              		.align	2
 361              	.L15:
 362 0118 00040240 		.word	1073873920
 363 011c 00000240 		.word	1073872896
 364 0120 00000000 		.word	hdma_usart1_rx
 365 0124 40640240 		.word	1073898560
 366 0128 00000000 		.word	hdma_usart1_tx
 367 012c B8640240 		.word	1073898680
 368              		.cfi_endproc
 369              	.LFE131:
 371              		.section	.text.HAL_UART_MspDeInit,"ax",%progbits
 372              		.align	1
 373              		.global	HAL_UART_MspDeInit
 374              		.syntax unified
 375              		.thumb
 376              		.thumb_func
 378              	HAL_UART_MspDeInit:
 379              	.LVL14:
 380              	.LFB132:
 138:Core/Src/usart.c **** 
 139:Core/Src/usart.c **** void HAL_UART_MspDeInit(UART_HandleTypeDef* uartHandle)
 140:Core/Src/usart.c **** {
 381              		.loc 1 140 1 view -0
 382              		.cfi_startproc
 383              		@ args = 0, pretend = 0, frame = 0
 384              		@ frame_needed = 0, uses_anonymous_args = 0
 141:Core/Src/usart.c **** 
 142:Core/Src/usart.c ****   if(uartHandle->Instance==USART1)
 385              		.loc 1 142 3 view .LVU132
 386              		.loc 1 142 16 is_stmt 0 view .LVU133
 387 0000 0268     		ldr	r2, [r0]
 388              		.loc 1 142 5 view .LVU134
 389 0002 0F4B     		ldr	r3, .L24
 390 0004 9A42     		cmp	r2, r3
 391 0006 00D0     		beq	.L23
ARM GAS  C:\Users\william\AppData\Local\Temp\ccncfDw2.s 			page 12


 392 0008 7047     		bx	lr
 393              	.L23:
 140:Core/Src/usart.c **** 
 394              		.loc 1 140 1 view .LVU135
 395 000a 10B5     		push	{r4, lr}
 396              		.cfi_def_cfa_offset 8
 397              		.cfi_offset 4, -8
 398              		.cfi_offset 14, -4
 399 000c 0446     		mov	r4, r0
 143:Core/Src/usart.c ****   {
 144:Core/Src/usart.c ****   /* USER CODE BEGIN USART1_MspDeInit 0 */
 145:Core/Src/usart.c **** 
 146:Core/Src/usart.c ****   /* USER CODE END USART1_MspDeInit 0 */
 147:Core/Src/usart.c ****     /* Peripheral clock disable */
 148:Core/Src/usart.c ****     __HAL_RCC_USART1_CLK_DISABLE();
 400              		.loc 1 148 5 is_stmt 1 view .LVU136
 401 000e 0D4A     		ldr	r2, .L24+4
 402 0010 536C     		ldr	r3, [r2, #68]
 403 0012 23F01003 		bic	r3, r3, #16
 404 0016 5364     		str	r3, [r2, #68]
 149:Core/Src/usart.c **** 
 150:Core/Src/usart.c ****     /**USART1 GPIO Configuration
 151:Core/Src/usart.c ****     PB7     ------> USART1_RX
 152:Core/Src/usart.c ****     PA9     ------> USART1_TX
 153:Core/Src/usart.c ****     */
 154:Core/Src/usart.c ****     HAL_GPIO_DeInit(GPIOB, GPIO_PIN_7);
 405              		.loc 1 154 5 view .LVU137
 406 0018 8021     		movs	r1, #128
 407 001a 0B48     		ldr	r0, .L24+8
 408              	.LVL15:
 409              		.loc 1 154 5 is_stmt 0 view .LVU138
 410 001c FFF7FEFF 		bl	HAL_GPIO_DeInit
 411              	.LVL16:
 155:Core/Src/usart.c **** 
 156:Core/Src/usart.c ****     HAL_GPIO_DeInit(GPIOA, GPIO_PIN_9);
 412              		.loc 1 156 5 is_stmt 1 view .LVU139
 413 0020 4FF40071 		mov	r1, #512
 414 0024 0948     		ldr	r0, .L24+12
 415 0026 FFF7FEFF 		bl	HAL_GPIO_DeInit
 416              	.LVL17:
 157:Core/Src/usart.c **** 
 158:Core/Src/usart.c ****     /* USART1 DMA DeInit */
 159:Core/Src/usart.c ****     HAL_DMA_DeInit(uartHandle->hdmarx);
 417              		.loc 1 159 5 view .LVU140
 418 002a A06B     		ldr	r0, [r4, #56]
 419 002c FFF7FEFF 		bl	HAL_DMA_DeInit
 420              	.LVL18:
 160:Core/Src/usart.c ****     HAL_DMA_DeInit(uartHandle->hdmatx);
 421              		.loc 1 160 5 view .LVU141
 422 0030 606B     		ldr	r0, [r4, #52]
 423 0032 FFF7FEFF 		bl	HAL_DMA_DeInit
 424              	.LVL19:
 161:Core/Src/usart.c **** 
 162:Core/Src/usart.c ****     /* USART1 interrupt Deinit */
 163:Core/Src/usart.c ****     HAL_NVIC_DisableIRQ(USART1_IRQn);
 425              		.loc 1 163 5 view .LVU142
 426 0036 2520     		movs	r0, #37
ARM GAS  C:\Users\william\AppData\Local\Temp\ccncfDw2.s 			page 13


 427 0038 FFF7FEFF 		bl	HAL_NVIC_DisableIRQ
 428              	.LVL20:
 164:Core/Src/usart.c ****   /* USER CODE BEGIN USART1_MspDeInit 1 */
 165:Core/Src/usart.c **** 
 166:Core/Src/usart.c ****   /* USER CODE END USART1_MspDeInit 1 */
 167:Core/Src/usart.c ****   }
 168:Core/Src/usart.c **** }
 429              		.loc 1 168 1 is_stmt 0 view .LVU143
 430 003c 10BD     		pop	{r4, pc}
 431              	.LVL21:
 432              	.L25:
 433              		.loc 1 168 1 view .LVU144
 434 003e 00BF     		.align	2
 435              	.L24:
 436 0040 00100140 		.word	1073811456
 437 0044 00380240 		.word	1073887232
 438 0048 00040240 		.word	1073873920
 439 004c 00000240 		.word	1073872896
 440              		.cfi_endproc
 441              	.LFE132:
 443              		.global	hdma_usart1_tx
 444              		.section	.bss.hdma_usart1_tx,"aw",%nobits
 445              		.align	2
 448              	hdma_usart1_tx:
 449 0000 00000000 		.space	96
 449      00000000 
 449      00000000 
 449      00000000 
 449      00000000 
 450              		.global	hdma_usart1_rx
 451              		.section	.bss.hdma_usart1_rx,"aw",%nobits
 452              		.align	2
 455              	hdma_usart1_rx:
 456 0000 00000000 		.space	96
 456      00000000 
 456      00000000 
 456      00000000 
 456      00000000 
 457              		.global	huart1
 458              		.section	.bss.huart1,"aw",%nobits
 459              		.align	2
 462              	huart1:
 463 0000 00000000 		.space	68
 463      00000000 
 463      00000000 
 463      00000000 
 463      00000000 
 464              		.text
 465              	.Letext0:
 466              		.file 2 "Drivers/CMSIS/Device/ST/STM32F4xx/Include/stm32f407xx.h"
 467              		.file 3 "C:/Users/william/AppData/Roaming/Code/User/globalStorage/bmd.stm32-for-vscode/@xpack-dev-
 468              		.file 4 "C:/Users/william/AppData/Roaming/Code/User/globalStorage/bmd.stm32-for-vscode/@xpack-dev-
 469              		.file 5 "Drivers/STM32F4xx_HAL_Driver/Inc/stm32f4xx_hal_def.h"
 470              		.file 6 "Drivers/STM32F4xx_HAL_Driver/Inc/stm32f4xx_hal_gpio.h"
 471              		.file 7 "Drivers/STM32F4xx_HAL_Driver/Inc/stm32f4xx_hal_dma.h"
 472              		.file 8 "Drivers/STM32F4xx_HAL_Driver/Inc/stm32f4xx_hal_uart.h"
 473              		.file 9 "Core/Inc/usart.h"
ARM GAS  C:\Users\william\AppData\Local\Temp\ccncfDw2.s 			page 14


 474              		.file 10 "Drivers/STM32F4xx_HAL_Driver/Inc/stm32f4xx_hal_cortex.h"
 475              		.file 11 "Core/Inc/main.h"
ARM GAS  C:\Users\william\AppData\Local\Temp\ccncfDw2.s 			page 15

